target datalayout = "e-m:e-p270:32:32-p271:32:32-p272:64:64-i64:64-i128:128-f80:128-n8:16:32:64-S128"
target triple = "x86_64-pc-linux-gnu"

%struct.AVChannelLayout = type { i32, i32, %union.anon.1, ptr }
%union.anon.1 = type { i64 }
%struct.AVFilterContext = type { ptr, ptr, ptr, ptr, ptr, i32, ptr, ptr, i32, ptr, ptr, i32, i32, ptr, ptr, ptr, ptr, i32, ptr, i32, i32 }
%struct.ShowSpatialContext = type { ptr, i32, i32, %struct.AVRational, [2 x ptr], [2 x ptr], [2 x ptr], ptr, [2 x ptr], i32, i32, i32, i32, i32, ptr, i64 }
%struct.AVRational = type { i32, i32 }
%struct.AVFrame = type { [8 x ptr], [8 x i32], ptr, i32, i32, i32, i32, i32, %struct.AVRational, i64, i64, %struct.AVRational, i32, ptr, i32, i32, [8 x ptr], ptr, i32, ptr, i32, i32, i32, i32, i32, i32, i32, i64, ptr, i32, ptr, ptr, i64, i64, i64, i64, ptr, %struct.AVChannelLayout, i64 }
%struct.AVComplexFloat = type { float, float }

; Function Attrs: nounwind uwtable
define internal i32 @run_channel_fft(ptr noundef %0, ptr noundef %1, i32 noundef %2, i32 noundef %3) #1 {
  %5 = alloca ptr, align 8
  %6 = alloca ptr, align 8
  %7 = alloca i32, align 4
  %8 = alloca i32, align 4
  %9 = alloca ptr, align 8
  %10 = alloca ptr, align 8
  %11 = alloca ptr, align 8
  %12 = alloca i32, align 4
  %13 = alloca ptr, align 8
  %14 = alloca i32, align 4
  store ptr %0, ptr %5, align 8, !tbaa !4
  store ptr %1, ptr %6, align 8, !tbaa !113
  store i32 %2, ptr %7, align 4, !tbaa !24
  store i32 %3, ptr %8, align 4, !tbaa !24
  call void @llvm.lifetime.start.p0(i64 8, ptr %9) #12
  %15 = load ptr, ptr %5, align 8, !tbaa !4
  %16 = getelementptr inbounds nuw %struct.AVFilterContext, ptr %15, i32 0, i32 9
  %17 = load ptr, ptr %16, align 8, !tbaa !9
  store ptr %17, ptr %9, align 8, !tbaa !22
  call void @llvm.lifetime.start.p0(i64 8, ptr %10) #12
  %18 = load ptr, ptr %9, align 8, !tbaa !22
  %19 = getelementptr inbounds nuw %struct.ShowSpatialContext, ptr %18, i32 0, i32 7
  %20 = load ptr, ptr %19, align 8, !tbaa !81
  store ptr %20, ptr %10, align 8, !tbaa !88
  call void @llvm.lifetime.start.p0(i64 8, ptr %11) #12
  %21 = load ptr, ptr %6, align 8, !tbaa !113
  store ptr %21, ptr %11, align 8, !tbaa !45
  call void @llvm.lifetime.start.p0(i64 4, ptr %12) #12
  %22 = load i32, ptr %7, align 4, !tbaa !24
  store i32 %22, ptr %12, align 4, !tbaa !24
  call void @llvm.lifetime.start.p0(i64 8, ptr %13) #12
  %23 = load ptr, ptr %11, align 8, !tbaa !45
  %24 = getelementptr inbounds nuw %struct.AVFrame, ptr %23, i32 0, i32 2
  %25 = load ptr, ptr %24, align 8, !tbaa !56
  %26 = load i32, ptr %12, align 4, !tbaa !24
  %27 = sext i32 %26 to i64
  %28 = getelementptr inbounds ptr, ptr %25, i64 %27
  %29 = load ptr, ptr %28, align 8, !tbaa !114
  store ptr %29, ptr %13, align 8, !tbaa !88
  call void @llvm.lifetime.start.p0(i64 4, ptr %14) #12
  store i32 0, ptr %14, align 4, !tbaa !24
  br label %30

30:                                               ; preds = %69, %4
  %31 = load i32, ptr %14, align 4, !tbaa !24
  %32 = load ptr, ptr %11, align 8, !tbaa !45
  %33 = getelementptr inbounds nuw %struct.AVFrame, ptr %32, i32 0, i32 5
  %34 = load i32, ptr %33, align 8, !tbaa !57
  %35 = icmp slt i32 %31, %34
  br i1 %35, label %37, label %36

36:                                               ; preds = %30
  call void @llvm.lifetime.end.p0(i64 4, ptr %14) #12
  br label %72

37:                                               ; preds = %30
  %38 = load ptr, ptr %13, align 8, !tbaa !88
  %39 = load i32, ptr %14, align 4, !tbaa !24
  %40 = sext i32 %39 to i64
  %41 = getelementptr inbounds float, ptr %38, i64 %40
  %42 = load float, ptr %41, align 4, !tbaa !75
  %43 = load ptr, ptr %10, align 8, !tbaa !88
  %44 = load i32, ptr %14, align 4, !tbaa !24
  %45 = sext i32 %44 to i64
  %46 = getelementptr inbounds float, ptr %43, i64 %45
  %47 = load float, ptr %46, align 4, !tbaa !75
  %48 = fmul nsz float %42, %47
  %49 = load ptr, ptr %9, align 8, !tbaa !22
  %50 = getelementptr inbounds nuw %struct.ShowSpatialContext, ptr %49, i32 0, i32 6
  %51 = load i32, ptr %12, align 4, !tbaa !24
  %52 = sext i32 %51 to i64
  %53 = getelementptr inbounds [2 x ptr], ptr %50, i64 0, i64 %52
  %54 = load ptr, ptr %53, align 8, !tbaa !78
  %55 = load i32, ptr %14, align 4, !tbaa !24
  %56 = sext i32 %55 to i64
  %57 = getelementptr inbounds %struct.AVComplexFloat, ptr %54, i64 %56
  %58 = getelementptr inbounds nuw %struct.AVComplexFloat, ptr %57, i32 0, i32 0
  store float %48, ptr %58, align 4, !tbaa !115
  %59 = load ptr, ptr %9, align 8, !tbaa !22
  %60 = getelementptr inbounds nuw %struct.ShowSpatialContext, ptr %59, i32 0, i32 6
  %61 = load i32, ptr %12, align 4, !tbaa !24
  %62 = sext i32 %61 to i64
  %63 = getelementptr inbounds [2 x ptr], ptr %60, i64 0, i64 %62
  %64 = load ptr, ptr %63, align 8, !tbaa !78
  %65 = load i32, ptr %14, align 4, !tbaa !24
  %66 = sext i32 %65 to i64
  %67 = getelementptr inbounds %struct.AVComplexFloat, ptr %64, i64 %66
  %68 = getelementptr inbounds nuw %struct.AVComplexFloat, ptr %67, i32 0, i32 1
  store float 0.000000e+00, ptr %68, align 4, !tbaa !117
  br label %69

69:                                               ; preds = %37
  %70 = load i32, ptr %14, align 4, !tbaa !24
  %71 = add nsw i32 %70, 1
  store i32 %71, ptr %14, align 4, !tbaa !24
  br label %30, !llvm.loop !118

72:                                               ; preds = %36
  %73 = load ptr, ptr %9, align 8, !tbaa !22
  %74 = getelementptr inbounds nuw %struct.ShowSpatialContext, ptr %73, i32 0, i32 8
  %75 = load i32, ptr %12, align 4, !tbaa !24
  %76 = sext i32 %75 to i64
  %77 = getelementptr inbounds [2 x ptr], ptr %74, i64 0, i64 %76
  %78 = load ptr, ptr %77, align 8, !tbaa !113
  %79 = load ptr, ptr %9, align 8, !tbaa !22
  %80 = getelementptr inbounds nuw %struct.ShowSpatialContext, ptr %79, i32 0, i32 4
  %81 = load i32, ptr %12, align 4, !tbaa !24
  %82 = sext i32 %81 to i64
  %83 = getelementptr inbounds [2 x ptr], ptr %80, i64 0, i64 %82
  %84 = load ptr, ptr %83, align 8, !tbaa !119
  %85 = load ptr, ptr %9, align 8, !tbaa !22
  %86 = getelementptr inbounds nuw %struct.ShowSpatialContext, ptr %85, i32 0, i32 5
  %87 = load i32, ptr %12, align 4, !tbaa !24
  %88 = sext i32 %87 to i64
  %89 = getelementptr inbounds [2 x ptr], ptr %86, i64 0, i64 %88
  %90 = load ptr, ptr %89, align 8, !tbaa !78
  %91 = load ptr, ptr %9, align 8, !tbaa !22
  %92 = getelementptr inbounds nuw %struct.ShowSpatialContext, ptr %91, i32 0, i32 6
  %93 = load i32, ptr %12, align 4, !tbaa !24
  %94 = sext i32 %93 to i64
  %95 = getelementptr inbounds [2 x ptr], ptr %92, i64 0, i64 %94
  %96 = load ptr, ptr %95, align 8, !tbaa !78
  call void %78(ptr noundef %84, ptr noundef %90, ptr noundef %96, i64 noundef 8)
  call void @llvm.lifetime.end.p0(i64 8, ptr %13) #12
  call void @llvm.lifetime.end.p0(i64 4, ptr %12) #12
  call void @llvm.lifetime.end.p0(i64 8, ptr %11) #12
  call void @llvm.lifetime.end.p0(i64 8, ptr %10) #12
  call void @llvm.lifetime.end.p0(i64 8, ptr %9) #12
  ret i32 0
}