; Function Attrs: nounwind uwtable
define internal noundef i32 @run_channel_fft(ptr noundef readonly captures(none) %0, ptr noundef readonly captures(none) %1, i32 noundef %2, i32 %3) #1 {
  %5 = getelementptr inbounds nuw i8, ptr %0, i64 72
  %6 = load ptr, ptr %5, align 8, !tbaa !4
  %7 = getelementptr inbounds nuw i8, ptr %6, i64 72
  %8 = load ptr, ptr %7, align 8, !tbaa !76
  %9 = getelementptr inbounds nuw i8, ptr %1, i64 96
  %10 = load ptr, ptr %9, align 8, !tbaa !44
  %11 = sext i32 %2 to i64
  %12 = getelementptr inbounds ptr, ptr %10, i64 %11
  %13 = load ptr, ptr %12, align 8, !tbaa !58
  %14 = getelementptr inbounds nuw i8, ptr %1, i64 112
  %15 = load i32, ptr %14, align 8, !tbaa !45
  %16 = icmp sgt i32 %15, 0
  %17 = getelementptr inbounds nuw i8, ptr %6, i64 56
  %18 = getelementptr inbounds [2 x ptr], ptr %17, i64 0, i64 %11
  %19 = load ptr, ptr %18, align 8, !tbaa !62
  br i1 %16, label %.lr.ph, label %._crit_edge

.lr.ph:                                           ; preds = %4
  %wide.trip.count = zext nneg i32 %15 to i64
  br label %29

._crit_edge:                                      ; preds = %29, %4
  %20 = getelementptr inbounds nuw i8, ptr %6, i64 80
  %21 = getelementptr inbounds [2 x ptr], ptr %20, i64 0, i64 %11
  %22 = load ptr, ptr %21, align 8, !tbaa !105
  %23 = getelementptr inbounds nuw i8, ptr %6, i64 24
  %24 = getelementptr inbounds [2 x ptr], ptr %23, i64 0, i64 %11
  %25 = load ptr, ptr %24, align 8, !tbaa !106
  %26 = getelementptr inbounds nuw i8, ptr %6, i64 40
  %27 = getelementptr inbounds [2 x ptr], ptr %26, i64 0, i64 %11
  %28 = load ptr, ptr %27, align 8, !tbaa !62
  tail call void %22(ptr noundef %25, ptr noundef %28, ptr noundef %19, i64 noundef 8) #10
  ret i32 0

29:                                               ; preds = %.lr.ph, %29
  %indvars.iv = phi i64 [ 0, %.lr.ph ], [ %indvars.iv.next, %29 ]
  %30 = getelementptr inbounds nuw float, ptr %13, i64 %indvars.iv
  %31 = load float, ptr %30, align 4, !tbaa !74
  %32 = getelementptr inbounds nuw float, ptr %8, i64 %indvars.iv
  %33 = load float, ptr %32, align 4, !tbaa !74
  %34 = fmul nsz float %31, %33
  %35 = getelementptr inbounds nuw %struct.AVComplexFloat, ptr %19, i64 %indvars.iv
  store float %34, ptr %35, align 4, !tbaa !64
  %36 = getelementptr inbounds nuw %struct.AVComplexFloat, ptr %19, i64 %indvars.iv, i32 1
  store float 0.000000e+00, ptr %36, align 4, !tbaa !67
  %indvars.iv.next = add nuw nsw i64 %indvars.iv, 1
  %exitcond.not = icmp eq i64 %indvars.iv.next, %wide.trip.count
  br i1 %exitcond.not, label %._crit_edge, label %29, !llvm.loop !108
}